target datalayout = "e-m:e-p270:32:32-p271:32:32-p272:64:64-i64:64-i128:128-f80:128-n8:16:32:64-S128"
target triple = "x86_64-pc-linux-gnu"

%"class.icu_77::UObject" = type { ptr }
%"class.icu_77::ParsePosition" = type { %"class.icu_77::UObject", i32, i32 }

@_ZTVN6icu_777UObjectE = available_externally unnamed_addr constant { [5 x ptr] } { [5 x ptr] [ptr null, ptr @_ZTIN6icu_777UObjectE, ptr @_ZN6icu_777UObjectD1Ev, ptr @_ZN6icu_777UObjectD0Ev, ptr @_ZNK6icu_777UObject17getDynamicClassIDEv] }, align 8
@_ZTVN6icu_7713ParsePositionE = available_externally unnamed_addr constant { [5 x ptr] } { [5 x ptr] [ptr null, ptr @_ZTIN6icu_7713ParsePositionE, ptr @_ZN6icu_7713ParsePositionD1Ev, ptr @_ZN6icu_7713ParsePositionD0Ev, ptr @_ZNK6icu_7713ParsePosition17getDynamicClassIDEv] }, align 8

; Function Attrs: inlinehint mustprogress nounwind uwtable
define linkonce_odr void @_ZN6icu_777UObjectC2Ev(ptr noundef nonnull align 8 dereferenceable(8) %0) unnamed_addr #2 comdat align 2 {
  %2 = alloca ptr, align 8
  store ptr %0, ptr %2, align 8, !tbaa !79
  %3 = load ptr, ptr %2, align 8
  store ptr getelementptr inbounds inrange(-16, 24) ({ [5 x ptr] }, ptr @_ZTVN6icu_777UObjectE, i32 0, i32 0, i32 2), ptr %3, align 8, !tbaa !30
  ret void
}

; Function Attrs: inlinehint mustprogress nounwind uwtable
define linkonce_odr noundef i32 @_ZNK6icu_7713ParsePosition8getIndexEv(ptr noundef nonnull align 8 dereferenceable(16) %0) #2 comdat align 2 {
  %2 = alloca ptr, align 8
  store ptr %0, ptr %2, align 8, !tbaa !98
  %3 = load ptr, ptr %2, align 8
  %4 = getelementptr inbounds nuw %"class.icu_77::ParsePosition", ptr %3, i32 0, i32 1
  %5 = load i32, ptr %4, align 8, !tbaa !104
  ret i32 %5
}

; Function Attrs: mustprogress nounwind uwtable
define linkonce_odr void @_ZN6icu_7713ParsePositionC2Ei(ptr noundef nonnull align 8 dereferenceable(16) %0, i32 noundef %1) unnamed_addr #0 comdat align 2 {
  %3 = alloca ptr, align 8
  %4 = alloca i32, align 4
  store ptr %0, ptr %3, align 8, !tbaa !98
  store i32 %1, ptr %4, align 4, !tbaa !14
  %5 = load ptr, ptr %3, align 8
  %6 = getelementptr inbounds i8, ptr %5, i64 0
  call void @llvm.memset.p0.i64(ptr align 8 %6, i8 0, i64 8, i1 false)
  call void @_ZN6icu_777UObjectC2Ev(ptr noundef nonnull align 8 dereferenceable(8) %5) #15
  store ptr getelementptr inbounds inrange(-16, 24) ({ [5 x ptr] }, ptr @_ZTVN6icu_7713ParsePositionE, i32 0, i32 0, i32 2), ptr %5, align 8, !tbaa !30
  %7 = getelementptr inbounds nuw %"class.icu_77::ParsePosition", ptr %5, i32 0, i32 1
  %8 = load i32, ptr %4, align 4, !tbaa !14
  store i32 %8, ptr %7, align 8, !tbaa !104
  %9 = getelementptr inbounds nuw %"class.icu_77::ParsePosition", ptr %5, i32 0, i32 2
  store i32 -1, ptr %9, align 4, !tbaa !106
  ret void
}

; Function Attrs: inlinehint mustprogress nounwind uwtable
define internal noundef signext i8 @_ZL9U_FAILURE10UErrorCode(i32 noundef %0) #2 {
  %2 = alloca i32, align 4
  store i32 %0, ptr %2, align 4, !tbaa !15
  %3 = load i32, ptr %2, align 4, !tbaa !15
  %4 = icmp sgt i32 %3, 0
  %5 = zext i1 %4 to i8
  ret i8 %5
}

; Function Attrs: mustprogress uwtable
define void @_ZNK6icu_7712NumberFormat5parseERKNS_13UnicodeStringERNS_11FormattableER10UErrorCode(ptr noundef nonnull align 8 dereferenceable(60) %0, ptr noundef nonnull align 8 dereferenceable(64) %1, ptr noundef nonnull align 8 dereferenceable(112) %2, ptr noundef nonnull align 4 dereferenceable(4) %3) unnamed_addr #1 align 2 personality ptr @__gxx_personality_v0 {
  %5 = alloca ptr, align 8
  %6 = alloca ptr, align 8
  %7 = alloca ptr, align 8
  %8 = alloca ptr, align 8
  %9 = alloca %"class.icu_77::ParsePosition", align 8
  %10 = alloca ptr, align 8
  %11 = alloca i32, align 4
  store ptr %0, ptr %5, align 8, !tbaa !40
  store ptr %1, ptr %6, align 8, !tbaa !38
  store ptr %2, ptr %7, align 8, !tbaa !74
  store ptr %3, ptr %8, align 8, !tbaa !22
  %12 = load ptr, ptr %5, align 8
  %13 = load ptr, ptr %8, align 8, !tbaa !22
  %14 = load i32, ptr %13, align 4, !tbaa !15
  %15 = call noundef signext i8 @_ZL9U_FAILURE10UErrorCode(i32 noundef %14)
  %16 = icmp ne i8 %15, 0
  br i1 %16, label %17, label %18

17:                                               ; preds = %4
  br label %35

18:                                               ; preds = %4
  call void @llvm.lifetime.start.p0(i64 16, ptr %9) #15
  call void @_ZN6icu_7713ParsePositionC2Ei(ptr noundef nonnull align 8 dereferenceable(16) %9, i32 noundef 0)
  %19 = load ptr, ptr %6, align 8, !tbaa !38
  %20 = load ptr, ptr %7, align 8, !tbaa !74
  %21 = load ptr, ptr %12, align 8, !tbaa !30
  %22 = getelementptr inbounds ptr, ptr %21, i64 20
  %23 = load ptr, ptr %22, align 8
  invoke void %23(ptr noundef nonnull align 8 dereferenceable(60) %12, ptr noundef nonnull align 8 dereferenceable(64) %19, ptr noundef nonnull align 8 dereferenceable(112) %20, ptr noundef nonnull align 8 dereferenceable(16) %9)
          to label %24 unwind label %30

24:                                               ; preds = %18
  %25 = invoke noundef i32 @_ZNK6icu_7713ParsePosition8getIndexEv(ptr noundef nonnull align 8 dereferenceable(16) %9)
          to label %26 unwind label %30

26:                                               ; preds = %24
  %27 = icmp eq i32 %25, 0
  br i1 %27, label %28, label %34

28:                                               ; preds = %26
  %29 = load ptr, ptr %8, align 8, !tbaa !22
  store i32 3, ptr %29, align 4, !tbaa !15
  br label %34

30:                                               ; preds = %24, %18
  %31 = landingpad { ptr, i32 }
          cleanup
  %32 = extractvalue { ptr, i32 } %31, 0
  store ptr %32, ptr %10, align 8
  %33 = extractvalue { ptr, i32 } %31, 1
  store i32 %33, ptr %11, align 4
  call void @_ZN6icu_7713ParsePositionD1Ev(ptr noundef nonnull align 8 dereferenceable(16) %9) #15
  call void @llvm.lifetime.end.p0(i64 16, ptr %9) #15
  br label %36

34:                                               ; preds = %28, %26
  call void @_ZN6icu_7713ParsePositionD1Ev(ptr noundef nonnull align 8 dereferenceable(16) %9) #15
  call void @llvm.lifetime.end.p0(i64 16, ptr %9) #15
  br label %35

35:                                               ; preds = %34, %17
  ret void

36:                                               ; preds = %30
  %37 = load ptr, ptr %10, align 8
  %38 = load i32, ptr %11, align 4
  %39 = insertvalue { ptr, i32 } poison, ptr %37, 0
  %40 = insertvalue { ptr, i32 } %39, i32 %38, 1
  resume { ptr, i32 } %40
}