; Function Attrs: mustprogress uwtable
define void @_ZNK6icu_7712NumberFormat5parseERKNS_13UnicodeStringERNS_11FormattableER10UErrorCode(ptr noundef nonnull align 8 dereferenceable(60) %0, ptr noundef nonnull align 8 dereferenceable(64) %1, ptr noundef nonnull align 8 dereferenceable(112) %2, ptr noundef nonnull align 4 captures(none) dereferenceable(4) %3) unnamed_addr #1 align 2 personality ptr @__gxx_personality_v0 {
  %5 = alloca %"class.icu_77::ParsePosition", align 8
  %6 = load i32, ptr %3, align 4, !tbaa !13
  %7 = icmp slt i32 %6, 1
  br i1 %7, label %8, label %21

8:                                                ; preds = %4
  call void @llvm.lifetime.start.p0(i64 16, ptr nonnull %5) #22
  store ptr getelementptr inbounds nuw inrange(-16, 24) (i8, ptr @_ZTVN6icu_7713ParsePositionE, i64 16), ptr %5, align 8, !tbaa !15
  %9 = getelementptr inbounds nuw i8, ptr %5, i64 8
  store i32 0, ptr %9, align 8, !tbaa !57
  %10 = getelementptr inbounds nuw i8, ptr %5, i64 12
  store i32 -1, ptr %10, align 4, !tbaa !59
  %11 = load ptr, ptr %0, align 8, !tbaa !15
  %12 = getelementptr inbounds nuw i8, ptr %11, i64 160
  %13 = load ptr, ptr %12, align 8
  invoke void %13(ptr noundef nonnull align 8 dereferenceable(60) %0, ptr noundef nonnull align 8 dereferenceable(64) %1, ptr noundef nonnull align 8 dereferenceable(112) %2, ptr noundef nonnull align 8 dereferenceable(16) %5)
          to label %14 unwind label %18

14:                                               ; preds = %8
  %15 = load i32, ptr %9, align 8, !tbaa !57
  %16 = icmp eq i32 %15, 0
  br i1 %16, label %17, label %20

17:                                               ; preds = %14
  store i32 3, ptr %3, align 4, !tbaa !13
  br label %20

18:                                               ; preds = %8
  %19 = landingpad { ptr, i32 }
          cleanup
  call void @_ZN6icu_7713ParsePositionD1Ev(ptr noundef nonnull align 8 dereferenceable(16) %5) #22
  call void @llvm.lifetime.end.p0(i64 16, ptr nonnull %5) #22
  resume { ptr, i32 } %19

20:                                               ; preds = %17, %14
  call void @_ZN6icu_7713ParsePositionD1Ev(ptr noundef nonnull align 8 dereferenceable(16) %5) #22
  call void @llvm.lifetime.end.p0(i64 16, ptr nonnull %5) #22
  br label %21

21:                                               ; preds = %4, %20
  ret void
}